; ModuleID = 'source-C-CXX/60/156.cpp'
source_filename = "source-C-CXX/60/156.cpp"
target datalayout = "e-m:e-p270:32:32-p271:32:32-p272:64:64-i64:64-f80:128-n8:16:32:64-S128"
target triple = "x86_64-pc-linux-gnu"

%"class.std::ios_base::Init" = type { i8 }
%"class.std::basic_istream" = type { i32 (...)**, i64, %"class.std::basic_ios" }
%"class.std::basic_ios" = type { %"class.std::ios_base", %"class.std::basic_ostream"*, i8, i8, %"class.std::basic_streambuf"*, %"class.std::ctype"*, %"class.std::num_put"*, %"class.std::num_get"* }
%"class.std::ios_base" = type { i32 (...)**, i64, i64, i32, i32, i32, %"struct.std::ios_base::_Callback_list"*, %"struct.std::ios_base::_Words", [8 x %"struct.std::ios_base::_Words"], i32, %"struct.std::ios_base::_Words"*, %"class.std::locale" }
%"struct.std::ios_base::_Callback_list" = type { %"struct.std::ios_base::_Callback_list"*, void (i32, %"class.std::ios_base"*, i32)*, i32, i32 }
%"struct.std::ios_base::_Words" = type { i8*, i64 }
%"class.std::locale" = type { %"class.std::locale::_Impl"* }
%"class.std::locale::_Impl" = type { i32, %"class.std::locale::facet"**, i64, %"class.std::locale::facet"**, i8** }
%"class.std::locale::facet" = type <{ i32 (...)**, i32, [4 x i8] }>
%"class.std::basic_ostream" = type { i32 (...)**, %"class.std::basic_ios" }
%"class.std::basic_streambuf" = type { i32 (...)**, i8*, i8*, i8*, i8*, i8*, i8*, %"class.std::locale" }
%"class.std::ctype" = type <{ %"class.std::locale::facet.base", [4 x i8], %struct.__locale_struct*, i8, [7 x i8], i32*, i32*, i16*, i8, [256 x i8], [256 x i8], i8, [6 x i8] }>
%"class.std::locale::facet.base" = type <{ i32 (...)**, i32 }>
%struct.__locale_struct = type { [13 x %struct.__locale_data*], i16*, i32*, i32*, [13 x i8*] }
%struct.__locale_data = type opaque
%"class.std::num_put" = type { %"class.std::locale::facet.base", [4 x i8] }
%"class.std::num_get" = type { %"class.std::locale::facet.base", [4 x i8] }

@_ZStL8__ioinit = internal global %"class.std::ios_base::Init" zeroinitializer, align 1
@__dso_handle = external hidden global i8
@_ZSt3cin = external global %"class.std::basic_istream", align 8
@_ZSt4cout = external global %"class.std::basic_ostream", align 8
@llvm.global_ctors = appending global [1 x { i32, void ()*, i8* }] [{ i32, void ()*, i8* } { i32 65535, void ()* @_GLOBAL__sub_I_156.cpp, i8* null }]

declare void @_ZNSt8ios_base4InitC1Ev(%"class.std::ios_base::Init"* nonnull align 1 dereferenceable(1)) unnamed_addr #0

; Function Attrs: nounwind
declare void @_ZNSt8ios_base4InitD1Ev(%"class.std::ios_base::Init"* nonnull align 1 dereferenceable(1)) unnamed_addr #1

; Function Attrs: nofree nounwind
declare i32 @__cxa_atexit(void (i8*)*, i8*, i8*) local_unnamed_addr #2

; Function Attrs: mustprogress norecurse sspstrong uwtable
define dso_local i32 @main() local_unnamed_addr #3 {
  %1 = alloca [21 x i32], align 16
  %2 = alloca i32, align 4
  %3 = alloca i32, align 4
  %4 = bitcast [21 x i32]* %1 to i8*
  call void @llvm.lifetime.start.p0i8(i64 84, i8* nonnull %4) #8
  call void @llvm.memset.p0i8.i64(i8* noundef nonnull align 16 dereferenceable(84) %4, i8 0, i64 84, i1 false)
  %5 = getelementptr inbounds [21 x i32], [21 x i32]* %1, i64 0, i64 1
  store i32 1, i32* %5, align 4
  %6 = getelementptr inbounds [21 x i32], [21 x i32]* %1, i64 0, i64 2
  store i32 1, i32* %6, align 8
  %7 = bitcast i32* %2 to i8*
  call void @llvm.lifetime.start.p0i8(i64 4, i8* nonnull %7) #8
  store i32 0, i32* %2, align 4, !tbaa !5
  %8 = bitcast i32* %3 to i8*
  call void @llvm.lifetime.start.p0i8(i64 4, i8* nonnull %8) #8
  store i32 0, i32* %3, align 4, !tbaa !5
  %9 = call nonnull align 8 dereferenceable(16) %"class.std::basic_istream"* @_ZNSirsERi(%"class.std::basic_istream"* nonnull align 8 dereferenceable(16) @_ZSt3cin, i32* nonnull align 4 dereferenceable(4) %2)
  %10 = load i32, i32* %6, align 8, !tbaa !5
  %11 = load i32, i32* %5, align 4, !tbaa !5
  %12 = add nsw i32 %11, %10
  %13 = getelementptr inbounds [21 x i32], [21 x i32]* %1, i64 0, i64 3
  store i32 %12, i32* %13, align 4, !tbaa !5
  %14 = add nsw i32 %10, %12
  %15 = getelementptr inbounds [21 x i32], [21 x i32]* %1, i64 0, i64 4
  store i32 %14, i32* %15, align 16, !tbaa !5
  %16 = add nsw i32 %12, %14
  %17 = getelementptr inbounds [21 x i32], [21 x i32]* %1, i64 0, i64 5
  store i32 %16, i32* %17, align 4, !tbaa !5
  %18 = add nsw i32 %14, %16
  %19 = getelementptr inbounds [21 x i32], [21 x i32]* %1, i64 0, i64 6
  store i32 %18, i32* %19, align 8, !tbaa !5
  %20 = add nsw i32 %16, %18
  %21 = getelementptr inbounds [21 x i32], [21 x i32]* %1, i64 0, i64 7
  store i32 %20, i32* %21, align 4, !tbaa !5
  %22 = add nsw i32 %18, %20
  %23 = getelementptr inbounds [21 x i32], [21 x i32]* %1, i64 0, i64 8
  store i32 %22, i32* %23, align 16, !tbaa !5
  %24 = add nsw i32 %20, %22
  %25 = getelementptr inbounds [21 x i32], [21 x i32]* %1, i64 0, i64 9
  store i32 %24, i32* %25, align 4, !tbaa !5
  %26 = add nsw i32 %22, %24
  %27 = getelementptr inbounds [21 x i32], [21 x i32]* %1, i64 0, i64 10
  store i32 %26, i32* %27, align 8, !tbaa !5
  %28 = add nsw i32 %24, %26
  %29 = getelementptr inbounds [21 x i32], [21 x i32]* %1, i64 0, i64 11
  store i32 %28, i32* %29, align 4, !tbaa !5
  %30 = add nsw i32 %26, %28
  %31 = getelementptr inbounds [21 x i32], [21 x i32]* %1, i64 0, i64 12
  store i32 %30, i32* %31, align 16, !tbaa !5
  %32 = add nsw i32 %28, %30
  %33 = getelementptr inbounds [21 x i32], [21 x i32]* %1, i64 0, i64 13
  store i32 %32, i32* %33, align 4, !tbaa !5
  %34 = add nsw i32 %30, %32
  %35 = getelementptr inbounds [21 x i32], [21 x i32]* %1, i64 0, i64 14
  store i32 %34, i32* %35, align 8, !tbaa !5
  %36 = add nsw i32 %32, %34
  %37 = getelementptr inbounds [21 x i32], [21 x i32]* %1, i64 0, i64 15
  store i32 %36, i32* %37, align 4, !tbaa !5
  %38 = add nsw i32 %34, %36
  %39 = getelementptr inbounds [21 x i32], [21 x i32]* %1, i64 0, i64 16
  store i32 %38, i32* %39, align 16, !tbaa !5
  %40 = add nsw i32 %36, %38
  %41 = getelementptr inbounds [21 x i32], [21 x i32]* %1, i64 0, i64 17
  store i32 %40, i32* %41, align 4, !tbaa !5
  %42 = add nsw i32 %38, %40
  %43 = getelementptr inbounds [21 x i32], [21 x i32]* %1, i64 0, i64 18
  store i32 %42, i32* %43, align 8, !tbaa !5
  %44 = add nsw i32 %40, %42
  %45 = getelementptr inbounds [21 x i32], [21 x i32]* %1, i64 0, i64 19
  store i32 %44, i32* %45, align 4, !tbaa !5
  %46 = add nsw i32 %42, %44
  %47 = getelementptr inbounds [21 x i32], [21 x i32]* %1, i64 0, i64 20
  store i32 %46, i32* %47, align 16, !tbaa !5
  %48 = load i32, i32* %2, align 4, !tbaa !5
  %49 = icmp slt i32 %48, 1
  br i1 %49, label %90, label %50

50:                                               ; preds = %0, %83
  %51 = phi i32 [ %87, %83 ], [ 1, %0 ]
  %52 = call nonnull align 8 dereferenceable(16) %"class.std::basic_istream"* @_ZNSirsERi(%"class.std::basic_istream"* nonnull align 8 dereferenceable(16) @_ZSt3cin, i32* nonnull align 4 dereferenceable(4) %3)
  %53 = load i32, i32* %3, align 4, !tbaa !5
  %54 = sext i32 %53 to i64
  %55 = getelementptr inbounds [21 x i32], [21 x i32]* %1, i64 0, i64 %54
  %56 = load i32, i32* %55, align 4, !tbaa !5
  %57 = call nonnull align 8 dereferenceable(8) %"class.std::basic_ostream"* @_ZNSolsEi(%"class.std::basic_ostream"* nonnull align 8 dereferenceable(8) @_ZSt4cout, i32 %56)
  %58 = bitcast %"class.std::basic_ostream"* %57 to i8**
  %59 = load i8*, i8** %58, align 8, !tbaa !9
  %60 = getelementptr i8, i8* %59, i64 -24
  %61 = bitcast i8* %60 to i64*
  %62 = load i64, i64* %61, align 8
  %63 = bitcast %"class.std::basic_ostream"* %57 to i8*
  %64 = add nsw i64 %62, 240
  %65 = getelementptr inbounds i8, i8* %63, i64 %64
  %66 = bitcast i8* %65 to %"class.std::ctype"**
  %67 = load %"class.std::ctype"*, %"class.std::ctype"** %66, align 8, !tbaa !11
  %68 = icmp eq %"class.std::ctype"* %67, null
  br i1 %68, label %69, label %70

69:                                               ; preds = %50
  call void @_ZSt16__throw_bad_castv() #9
  unreachable

70:                                               ; preds = %50
  %71 = getelementptr inbounds %"class.std::ctype", %"class.std::ctype"* %67, i64 0, i32 8
  %72 = load i8, i8* %71, align 8, !tbaa !15
  %73 = icmp eq i8 %72, 0
  br i1 %73, label %77, label %74

74:                                               ; preds = %70
  %75 = getelementptr inbounds %"class.std::ctype", %"class.std::ctype"* %67, i64 0, i32 9, i64 10
  %76 = load i8, i8* %75, align 1, !tbaa !17
  br label %83

77:                                               ; preds = %70
  call void @_ZNKSt5ctypeIcE13_M_widen_initEv(%"class.std::ctype"* nonnull align 8 dereferenceable(570) %67)
  %78 = bitcast %"class.std::ctype"* %67 to i8 (%"class.std::ctype"*, i8)***
  %79 = load i8 (%"class.std::ctype"*, i8)**, i8 (%"class.std::ctype"*, i8)*** %78, align 8, !tbaa !9
  %80 = getelementptr inbounds i8 (%"class.std::ctype"*, i8)*, i8 (%"class.std::ctype"*, i8)** %79, i64 6
  %81 = load i8 (%"class.std::ctype"*, i8)*, i8 (%"class.std::ctype"*, i8)** %80, align 8
  %82 = call signext i8 %81(%"class.std::ctype"* nonnull align 8 dereferenceable(570) %67, i8 signext 10)
  br label %83

83:                                               ; preds = %74, %77
  %84 = phi i8 [ %76, %74 ], [ %82, %77 ]
  %85 = call nonnull align 8 dereferenceable(8) %"class.std::basic_ostream"* @_ZNSo3putEc(%"class.std::basic_ostream"* nonnull align 8 dereferenceable(8) %57, i8 signext %84)
  %86 = call nonnull align 8 dereferenceable(8) %"class.std::basic_ostream"* @_ZNSo5flushEv(%"class.std::basic_ostream"* nonnull align 8 dereferenceable(8) %85)
  %87 = add nuw nsw i32 %51, 1
  %88 = load i32, i32* %2, align 4, !tbaa !5
  %89 = icmp slt i32 %51, %88
  br i1 %89, label %50, label %90, !llvm.loop !18

90:                                               ; preds = %83, %0
  call void @llvm.lifetime.end.p0i8(i64 4, i8* nonnull %8) #8
  call void @llvm.lifetime.end.p0i8(i64 4, i8* nonnull %7) #8
  call void @llvm.lifetime.end.p0i8(i64 84, i8* nonnull %4) #8
  ret i32 0
}

; Function Attrs: argmemonly mustprogress nofree nosync nounwind willreturn
declare void @llvm.lifetime.start.p0i8(i64 immarg, i8* nocapture) #4

; Function Attrs: argmemonly mustprogress nofree nounwind willreturn writeonly
declare void @llvm.memset.p0i8.i64(i8* nocapture writeonly, i8, i64, i1 immarg) #5

declare nonnull align 8 dereferenceable(16) %"class.std::basic_istream"* @_ZNSirsERi(%"class.std::basic_istream"* nonnull align 8 dereferenceable(16), i32* nonnull align 4 dereferenceable(4)) local_unnamed_addr #0

declare nonnull align 8 dereferenceable(8) %"class.std::basic_ostream"* @_ZNSolsEi(%"class.std::basic_ostream"* nonnull align 8 dereferenceable(8), i32) local_unnamed_addr #0

; Function Attrs: argmemonly mustprogress nofree nosync nounwind willreturn
declare void @llvm.lifetime.end.p0i8(i64 immarg, i8* nocapture) #4

declare nonnull align 8 dereferenceable(8) %"class.std::basic_ostream"* @_ZNSo3putEc(%"class.std::basic_ostream"* nonnull align 8 dereferenceable(8), i8 signext) local_unnamed_addr #0

declare nonnull align 8 dereferenceable(8) %"class.std::basic_ostream"* @_ZNSo5flushEv(%"class.std::basic_ostream"* nonnull align 8 dereferenceable(8)) local_unnamed_addr #0

; Function Attrs: noreturn
declare void @_ZSt16__throw_bad_castv() local_unnamed_addr #6

declare void @_ZNKSt5ctypeIcE13_M_widen_initEv(%"class.std::ctype"* nonnull align 8 dereferenceable(570)) local_unnamed_addr #0

; Function Attrs: sspstrong uwtable
define internal void @_GLOBAL__sub_I_156.cpp() #7 section ".text.startup" {
  tail call void @_ZNSt8ios_base4InitC1Ev(%"class.std::ios_base::Init"* nonnull align 1 dereferenceable(1) @_ZStL8__ioinit)
  %1 = tail call i32 @__cxa_atexit(void (i8*)* bitcast (void (%"class.std::ios_base::Init"*)* @_ZNSt8ios_base4InitD1Ev to void (i8*)*), i8* getelementptr inbounds (%"class.std::ios_base::Init", %"class.std::ios_base::Init"* @_ZStL8__ioinit, i64 0, i32 0), i8* nonnull @__dso_handle) #8
  ret void
}


!llvm.module.flags = !{!0, !1, !2, !3}
!llvm.ident = !{!4}

!0 = !{i32 1, !"wchar_size", i32 4}
!1 = !{i32 7, !"PIC Level", i32 2}
!2 = !{i32 7, !"PIE Level", i32 2}
!3 = !{i32 7, !"uwtable", i32 1}
!4 = !{!"clang version 13.0.0"}
!5 = !{!6, !6, i64 0}
!6 = !{!"int", !7, i64 0}
!7 = !{!"omnipotent char", !8, i64 0}
!8 = !{!"Simple C++ TBAA"}
!9 = !{!10, !10, i64 0}
!10 = !{!"vtable pointer", !8, i64 0}
!11 = !{!12, !13, i64 240}
!12 = !{!"_ZTSSt9basic_iosIcSt11char_traitsIcEE", !13, i64 216, !7, i64 224, !14, i64 225, !13, i64 232, !13, i64 240, !13, i64 248, !13, i64 256}
!13 = !{!"any pointer", !7, i64 0}
!14 = !{!"bool", !7, i64 0}
!15 = !{!16, !7, i64 56}
!16 = !{!"_ZTSSt5ctypeIcE", !13, i64 16, !14, i64 24, !13, i64 32, !13, i64 40, !13, i64 48, !7, i64 56, !7, i64 57, !7, i64 313, !7, i64 569}
!17 = !{!7, !7, i64 0}
!18 = distinct !{!18, !19}
!19 = !{!"llvm.loop.mustprogress"}
